target datalayout = "e-m:e-p270:32:32-p271:32:32-p272:64:64-i64:64-i128:128-f80:128-n8:16:32:64-S128"
target triple = "x86_64-pc-linux-gnu"

; Function Attrs: mustprogress uwtable
define internal noundef signext i8 @_ZN6icu_7712_GLOBAL__N_119hasNoMajorSolarTermEPKNS_8TimeZoneEiR10UErrorCode(ptr noundef %0, i32 noundef %1, ptr noundef nonnull align 4 dereferenceable(4) %2) #0 {
  %4 = alloca i8, align 1
  %5 = alloca ptr, align 8
  %6 = alloca i32, align 4
  %7 = alloca ptr, align 8
  %8 = alloca i32, align 4
  %9 = alloca i32, align 4
  %10 = alloca i32, align 4
  store ptr %0, ptr %5, align 8, !tbaa !46
  store i32 %1, ptr %6, align 4, !tbaa !29
  store ptr %2, ptr %7, align 8, !tbaa !10
  %11 = load ptr, ptr %7, align 8, !tbaa !10
  %12 = load i32, ptr %11, align 4, !tbaa !30
  %13 = call noundef signext i8 @_ZL9U_FAILURE10UErrorCode(i32 noundef %12)
  %14 = icmp ne i8 %13, 0
  br i1 %14, label %15, label %16

15:                                               ; preds = %3
  store i8 0, ptr %4, align 1
  br label %41

16:                                               ; preds = %3
  call void @llvm.lifetime.start.p0(i64 4, ptr %8) #13
  %17 = load ptr, ptr %5, align 8, !tbaa !46
  %18 = load i32, ptr %6, align 4, !tbaa !29
  %19 = load ptr, ptr %7, align 8, !tbaa !10
  %20 = call noundef i32 @_ZN6icu_7712_GLOBAL__N_114majorSolarTermEPKNS_8TimeZoneEiR10UErrorCode(ptr noundef %17, i32 noundef %18, ptr noundef nonnull align 4 dereferenceable(4) %19)
  store i32 %20, ptr %8, align 4, !tbaa !29
  call void @llvm.lifetime.start.p0(i64 4, ptr %9) #13
  %21 = load ptr, ptr %5, align 8, !tbaa !46
  %22 = load ptr, ptr %5, align 8, !tbaa !46
  %23 = load i32, ptr %6, align 4, !tbaa !29
  %24 = add nsw i32 %23, 25
  %25 = sitofp i32 %24 to double
  %26 = load ptr, ptr %7, align 8, !tbaa !10
  %27 = call noundef i32 @_ZN6icu_7712_GLOBAL__N_111newMoonNearEPKNS_8TimeZoneEdaR10UErrorCode(ptr noundef %22, double noundef %25, i8 noundef signext 1, ptr noundef nonnull align 4 dereferenceable(4) %26)
  %28 = load ptr, ptr %7, align 8, !tbaa !10
  %29 = call noundef i32 @_ZN6icu_7712_GLOBAL__N_114majorSolarTermEPKNS_8TimeZoneEiR10UErrorCode(ptr noundef %21, i32 noundef %27, ptr noundef nonnull align 4 dereferenceable(4) %28)
  store i32 %29, ptr %9, align 4, !tbaa !29
  %30 = load ptr, ptr %7, align 8, !tbaa !10
  %31 = load i32, ptr %30, align 4, !tbaa !30
  %32 = call noundef signext i8 @_ZL9U_FAILURE10UErrorCode(i32 noundef %31)
  %33 = icmp ne i8 %32, 0
  br i1 %33, label %34, label %35

34:                                               ; preds = %16
  store i8 0, ptr %4, align 1
  store i32 1, ptr %10, align 4
  br label %40

35:                                               ; preds = %16
  %36 = load i32, ptr %8, align 4, !tbaa !29
  %37 = load i32, ptr %9, align 4, !tbaa !29
  %38 = icmp eq i32 %36, %37
  %39 = zext i1 %38 to i8
  store i8 %39, ptr %4, align 1
  store i32 1, ptr %10, align 4
  br label %40

40:                                               ; preds = %35, %34
  call void @llvm.lifetime.end.p0(i64 4, ptr %9) #13
  call void @llvm.lifetime.end.p0(i64 4, ptr %8) #13
  br label %41

41:                                               ; preds = %40, %15
  %42 = load i8, ptr %4, align 1
  ret i8 %42
}

; Function Attrs: inlinehint mustprogress nounwind uwtable
define internal noundef signext i8 @_ZL9U_FAILURE10UErrorCode(i32 noundef %0) #4 {
  %2 = alloca i32, align 4
  store i32 %0, ptr %2, align 4, !tbaa !30
  %3 = load i32, ptr %2, align 4, !tbaa !30
  %4 = icmp sgt i32 %3, 0
  %5 = zext i1 %4 to i8
  ret i8 %5
}

; Function Attrs: mustprogress uwtable
define internal noundef signext i8 @_ZN6icu_7712_GLOBAL__N_118isLeapMonthBetweenEPKNS_8TimeZoneEiiR10UErrorCode(ptr noundef %0, i32 noundef %1, i32 noundef %2, ptr noundef nonnull align 4 dereferenceable(4) %3) #0 {
  %5 = alloca i8, align 1
  %6 = alloca ptr, align 8
  %7 = alloca i32, align 4
  %8 = alloca i32, align 4
  %9 = alloca ptr, align 8
  store ptr %0, ptr %6, align 8, !tbaa !46
  store i32 %1, ptr %7, align 4, !tbaa !29
  store i32 %2, ptr %8, align 4, !tbaa !29
  store ptr %3, ptr %9, align 8, !tbaa !10
  %10 = load ptr, ptr %9, align 8, !tbaa !10
  %11 = load i32, ptr %10, align 4, !tbaa !30
  %12 = call noundef signext i8 @_ZL9U_FAILURE10UErrorCode(i32 noundef %11)
  %13 = icmp ne i8 %12, 0
  br i1 %13, label %14, label %15

14:                                               ; preds = %4
  store i8 0, ptr %5, align 1
  br label %41

15:                                               ; preds = %4
  br label %16

16:                                               ; preds = %39, %15
  %17 = load i32, ptr %8, align 4, !tbaa !29
  %18 = load i32, ptr %7, align 4, !tbaa !29
  %19 = icmp sge i32 %17, %18
  br i1 %19, label %20, label %40

20:                                               ; preds = %16
  %21 = load ptr, ptr %6, align 8, !tbaa !46
  %22 = load i32, ptr %8, align 4, !tbaa !29
  %23 = load ptr, ptr %9, align 8, !tbaa !10
  %24 = call noundef signext i8 @_ZN6icu_7712_GLOBAL__N_119hasNoMajorSolarTermEPKNS_8TimeZoneEiR10UErrorCode(ptr noundef %21, i32 noundef %22, ptr noundef nonnull align 4 dereferenceable(4) %23)
  %25 = icmp ne i8 %24, 0
  br i1 %25, label %26, label %27

26:                                               ; preds = %20
  store i8 1, ptr %5, align 1
  br label %41

27:                                               ; preds = %20
  %28 = load ptr, ptr %6, align 8, !tbaa !46
  %29 = load i32, ptr %8, align 4, !tbaa !29
  %30 = sub nsw i32 %29, 25
  %31 = sitofp i32 %30 to double
  %32 = load ptr, ptr %9, align 8, !tbaa !10
  %33 = call noundef i32 @_ZN6icu_7712_GLOBAL__N_111newMoonNearEPKNS_8TimeZoneEdaR10UErrorCode(ptr noundef %28, double noundef %31, i8 noundef signext 0, ptr noundef nonnull align 4 dereferenceable(4) %32)
  store i32 %33, ptr %8, align 4, !tbaa !29
  %34 = load ptr, ptr %9, align 8, !tbaa !10
  %35 = load i32, ptr %34, align 4, !tbaa !30
  %36 = call noundef signext i8 @_ZL9U_FAILURE10UErrorCode(i32 noundef %35)
  %37 = icmp ne i8 %36, 0
  br i1 %37, label %38, label %39

38:                                               ; preds = %27
  store i8 0, ptr %5, align 1
  br label %41

39:                                               ; preds = %27
  br label %16, !llvm.loop !81

40:                                               ; preds = %16
  store i8 0, ptr %5, align 1
  br label %41

41:                                               ; preds = %40, %38, %26, %14
  %42 = load i8, ptr %5, align 1
  ret i8 %42
}