; Function Attrs: mustprogress uwtable
define internal fastcc noundef signext range(i8 0, 2) i8 @_ZN6icu_7712_GLOBAL__N_118isLeapMonthBetweenEPKNS_8TimeZoneEiiR10UErrorCode(ptr noundef %0, i32 noundef %1, i32 noundef %2, ptr noundef nonnull align 4 dereferenceable(4) %3) unnamed_addr #0 {
  %5 = load i32, ptr %3, align 4, !tbaa !21
  %6 = icmp slt i32 %5, 1
  br i1 %6, label %.preheader, label %.loopexit

.preheader:                                       ; preds = %4, %_ZN6icu_7712_GLOBAL__N_119hasNoMajorSolarTermEPKNS_8TimeZoneEiR10UErrorCode.exit.thread
  %.010 = phi i32 [ %17, %_ZN6icu_7712_GLOBAL__N_119hasNoMajorSolarTermEPKNS_8TimeZoneEiR10UErrorCode.exit.thread ], [ %2, %4 ]
  %.not11 = icmp slt i32 %.010, %1
  br i1 %.not11, label %.loopexit, label %_ZN6icu_7712_GLOBAL__N_119hasNoMajorSolarTermEPKNS_8TimeZoneEiR10UErrorCode.exit

_ZN6icu_7712_GLOBAL__N_119hasNoMajorSolarTermEPKNS_8TimeZoneEiR10UErrorCode.exit: ; preds = %.preheader
  %7 = tail call fastcc noundef i32 @_ZN6icu_7712_GLOBAL__N_114majorSolarTermEPKNS_8TimeZoneEiR10UErrorCode(ptr noundef %0, i32 noundef %.010, ptr noundef nonnull align 4 dereferenceable(4) %3)
  %8 = add nsw i32 %.010, 25
  %9 = sitofp i32 %8 to double
  %10 = tail call fastcc noundef i32 @_ZN6icu_7712_GLOBAL__N_111newMoonNearEPKNS_8TimeZoneEdaR10UErrorCode(ptr noundef %0, double noundef %9, i8 noundef signext 1, ptr noundef nonnull align 4 dereferenceable(4) %3)
  %11 = tail call fastcc noundef i32 @_ZN6icu_7712_GLOBAL__N_114majorSolarTermEPKNS_8TimeZoneEiR10UErrorCode(ptr noundef %0, i32 noundef %10, ptr noundef nonnull align 4 dereferenceable(4) %3)
  %12 = load i32, ptr %3, align 4, !tbaa !21
  %13 = icmp sgt i32 %12, 0
  %14 = icmp ne i32 %7, %11
  %narrow.i.not = or i1 %14, %13
  br i1 %narrow.i.not, label %_ZN6icu_7712_GLOBAL__N_119hasNoMajorSolarTermEPKNS_8TimeZoneEiR10UErrorCode.exit.thread, label %.loopexit

_ZN6icu_7712_GLOBAL__N_119hasNoMajorSolarTermEPKNS_8TimeZoneEiR10UErrorCode.exit.thread: ; preds = %_ZN6icu_7712_GLOBAL__N_119hasNoMajorSolarTermEPKNS_8TimeZoneEiR10UErrorCode.exit
  %15 = add nsw i32 %.010, -25
  %16 = sitofp i32 %15 to double
  %17 = tail call fastcc noundef i32 @_ZN6icu_7712_GLOBAL__N_111newMoonNearEPKNS_8TimeZoneEdaR10UErrorCode(ptr noundef %0, double noundef %16, i8 noundef signext 0, ptr noundef nonnull align 4 dereferenceable(4) %3)
  %18 = load i32, ptr %3, align 4, !tbaa !21
  %19 = icmp slt i32 %18, 1
  br i1 %19, label %.preheader, label %.loopexit, !llvm.loop !31

.loopexit:                                        ; preds = %.preheader, %_ZN6icu_7712_GLOBAL__N_119hasNoMajorSolarTermEPKNS_8TimeZoneEiR10UErrorCode.exit.thread, %_ZN6icu_7712_GLOBAL__N_119hasNoMajorSolarTermEPKNS_8TimeZoneEiR10UErrorCode.exit, %4
  %.0 = phi i8 [ 0, %4 ], [ 0, %.preheader ], [ 0, %_ZN6icu_7712_GLOBAL__N_119hasNoMajorSolarTermEPKNS_8TimeZoneEiR10UErrorCode.exit.thread ], [ 1, %_ZN6icu_7712_GLOBAL__N_119hasNoMajorSolarTermEPKNS_8TimeZoneEiR10UErrorCode.exit ]
  ret i8 %.0
}